; Function Attrs: nounwind uwtable
define range(i32 0, 2) i32 @ossl_quic_obj_init(ptr noundef %0, ptr noundef %1, i32 noundef %2, ptr noundef %3, ptr noundef %4, ptr noundef %5) local_unnamed_addr #0 {
  %7 = icmp ne ptr %4, null
  %.not38 = icmp eq ptr %5, null
  %.not = icmp eq ptr %0, null
  br i1 %.not, label %.critedge, label %8

8:                                                ; preds = %6
  %9 = getelementptr inbounds nuw i8, ptr %0, i64 112
  %10 = load i8, ptr %9, align 8
  %11 = and i8 %10, 1
  %.not33 = icmp ne i8 %11, 0
  %12 = and i32 %2, 128
  %.not34 = icmp eq i32 %12, 0
  %or.cond = or i1 %.not34, %.not33
  br i1 %or.cond, label %.critedge, label %13

13:                                               ; preds = %8
  %14 = icmp eq ptr %3, null
  br i1 %14, label %.critedge41, label %15

15:                                               ; preds = %13
  %16 = load i32, ptr %3, align 8, !tbaa !3
  %17 = and i32 %16, 128
  %18 = icmp eq i32 %17, 0
  %or.cond42 = or i1 %7, %18
  br i1 %or.cond42, label %.critedge, label %.critedge41, !prof !15

.critedge41:                                      ; preds = %13, %15
  %19 = getelementptr inbounds nuw i8, ptr %1, i64 8
  %20 = load ptr, ptr %19, align 8, !tbaa !16
  %21 = tail call i32 @ossl_ssl_init(ptr noundef nonnull %0, ptr noundef %1, ptr noundef %20, i32 noundef %2) #5
  %.not37 = icmp eq i32 %21, 0
  %.pre = load i8, ptr %9, align 8
  br i1 %.not37, label %obj_update_cache.exit.thread, label %22

22:                                               ; preds = %.critedge41
  %23 = getelementptr inbounds nuw i8, ptr %1, i64 1752
  %24 = load i64, ptr %23, align 8, !tbaa !47
  %25 = getelementptr inbounds nuw i8, ptr %0, i64 104
  store i64 %24, ptr %25, align 8, !tbaa !48
  %26 = getelementptr inbounds nuw i8, ptr %0, i64 64
  store ptr %3, ptr %26, align 8, !tbaa !53
  %27 = select i1 %7, i8 2, i8 0
  %28 = and i8 %.pre, -31
  %29 = select i1 %.not38, i8 0, i8 4
  %30 = or disjoint i8 %29, %27
  %31 = or disjoint i8 %30, %28
  %32 = getelementptr inbounds nuw i8, ptr %0, i64 88
  store ptr %4, ptr %32, align 8, !tbaa !54
  %33 = getelementptr inbounds nuw i8, ptr %0, i64 96
  store ptr %5, ptr %33, align 8, !tbaa !55
  store i8 %31, ptr %9, align 8
  br label %.lr.ph.i

.lr.ph.i:                                         ; preds = %22, %42
  %.032.i = phi ptr [ %44, %42 ], [ %0, %22 ]
  %34 = getelementptr inbounds nuw i8, ptr %.032.i, i64 112
  %35 = load i8, ptr %34, align 8
  %36 = and i8 %35, 2
  %.not24.i = icmp eq i8 %36, 0
  br i1 %.not24.i, label %37, label %.critedge.i

37:                                               ; preds = %.lr.ph.i
  %38 = icmp eq ptr %.032.i, %0
  %39 = and i8 %35, 1
  %40 = icmp ne i8 %39, 0
  %41 = or i1 %38, %40
  br i1 %41, label %42, label %obj_update_cache.exit.thread, !prof !56

42:                                               ; preds = %37
  %43 = getelementptr inbounds nuw i8, ptr %.032.i, i64 64
  %44 = load ptr, ptr %43, align 8, !tbaa !53
  %.not.i = icmp eq ptr %44, null
  br i1 %.not.i, label %obj_update_cache.exit.thread, label %.lr.ph.i, !llvm.loop !57

.critedge.i:                                      ; preds = %.lr.ph.i
  %45 = getelementptr inbounds nuw i8, ptr %0, i64 72
  store ptr %.032.i, ptr %45, align 8, !tbaa !59
  %46 = getelementptr inbounds nuw i8, ptr %.032.i, i64 88
  %47 = load ptr, ptr %46, align 8, !tbaa !54
  store ptr %47, ptr %32, align 8, !tbaa !54
  br label %48

48:                                               ; preds = %52, %.critedge.i
  %.134.i = phi ptr [ %0, %.critedge.i ], [ %54, %52 ]
  %49 = getelementptr inbounds nuw i8, ptr %.134.i, i64 112
  %50 = load i8, ptr %49, align 8
  %51 = and i8 %50, 4
  %.not26.i = icmp eq i8 %51, 0
  br i1 %.not26.i, label %52, label %55

52:                                               ; preds = %48
  %53 = getelementptr inbounds nuw i8, ptr %.134.i, i64 64
  %54 = load ptr, ptr %53, align 8, !tbaa !53
  %.not25.i = icmp eq ptr %54, null
  br i1 %.not25.i, label %.critedge28.i, label %48, !llvm.loop !60

55:                                               ; preds = %48
  %56 = getelementptr inbounds nuw i8, ptr %0, i64 80
  store ptr %.134.i, ptr %56, align 8, !tbaa !61
  %57 = getelementptr inbounds nuw i8, ptr %.134.i, i64 96
  %58 = load ptr, ptr %57, align 8, !tbaa !55
  br label %60

.critedge28.i:                                    ; preds = %52
  %59 = getelementptr inbounds nuw i8, ptr %0, i64 80
  store ptr null, ptr %59, align 8, !tbaa !61
  br label %60

60:                                               ; preds = %.critedge28.i, %55
  %61 = phi ptr [ %58, %55 ], [ null, %.critedge28.i ]
  store ptr %61, ptr %33, align 8, !tbaa !55
  %62 = or i8 %31, 1
  br label %.critedge.sink.split

obj_update_cache.exit.thread:                     ; preds = %37, %42, %.critedge41
  %63 = phi i8 [ %.pre, %.critedge41 ], [ %31, %42 ], [ %31, %37 ]
  %64 = and i8 %63, -7
  br label %.critedge.sink.split

.critedge.sink.split:                             ; preds = %60, %obj_update_cache.exit.thread
  %.sink = phi i8 [ %64, %obj_update_cache.exit.thread ], [ %62, %60 ]
  %.0.ph = phi i32 [ 0, %obj_update_cache.exit.thread ], [ 1, %60 ]
  store i8 %.sink, ptr %9, align 8
  br label %.critedge

.critedge:                                        ; preds = %.critedge.sink.split, %8, %6, %15
  %.0 = phi i32 [ 0, %15 ], [ 0, %6 ], [ 0, %8 ], [ %.0.ph, %.critedge.sink.split ]
  ret i32 %.0
}